; Function Attrs: nounwind uwtable
define internal range(i32 -1, 1) i32 @_print_agent_list_msg_type(ptr noundef %0, ptr noundef %1) #0 {
  %3 = alloca ptr, align 8
  %4 = alloca i16, align 2
  call void @llvm.lifetime.start.p0(i64 8, ptr nonnull %3) #13
  store ptr %1, ptr %3, align 8
  call void @llvm.lifetime.start.p0(i64 2, ptr nonnull %4) #13
  %5 = getelementptr inbounds nuw i8, ptr %0, i64 20
  %6 = load i32, ptr %5, align 4
  %7 = icmp ult i32 %6, 2
  br i1 %7, label %15, label %8

8:                                                ; preds = %2
  store i32 0, ptr %5, align 4
  %9 = call i32 @slurm_unpack16(ptr noundef nonnull %4, ptr noundef nonnull %0) #13
  store i32 %6, ptr %5, align 4
  %10 = load i8, ptr %1, align 1
  %.not = icmp eq i8 %10, 0
  %11 = select i1 %.not, ptr @.str.49, ptr @.str.48
  %12 = load i16, ptr %4, align 2
  %13 = zext i16 %12 to i32
  %14 = call ptr @slurmdbd_msg_type_2_str(i32 noundef %13, i32 noundef 1) #13
  call void (ptr, ptr, ...) @slurm_xstrfmtcat(ptr noundef nonnull %3, ptr noundef nonnull @.str.47, ptr noundef nonnull %11, ptr noundef %14) #13
  br label %15

15:                                               ; preds = %2, %8
  %.0 = phi i32 [ 0, %8 ], [ -1, %2 ]
  call void @llvm.lifetime.end.p0(i64 2, ptr nonnull %4) #13
  call void @llvm.lifetime.end.p0(i64 8, ptr nonnull %3) #13
  ret i32 %.0
}